target datalayout = "e-m:e-p270:32:32-p271:32:32-p272:64:64-i64:64-i128:128-f80:128-n8:16:32:64-S128"
target triple = "x86_64-pc-linux-gnu"

%struct.HTAB = type { ptr, ptr, ptr, ptr, ptr, ptr, ptr, ptr, i8, i8, i8, i64, i64, i32 }
%struct.HASHHDR = type { [32 x %struct.FreeListData], i64, i64, i32, i32, i32, i64, i64, i64, i64, i64, i32, i32 }
%struct.FreeListData = type { i8, i64, ptr }

; Function Attrs: nounwind uwtable
define dso_local i64 @hash_get_num_entries(ptr noundef %0) #0 {
  %2 = alloca ptr, align 8
  %3 = alloca i32, align 4
  %4 = alloca i64, align 8
  store ptr %0, ptr %2, align 8
  call void @llvm.lifetime.start.p0(i64 4, ptr %3) #11
  call void @llvm.lifetime.start.p0(i64 8, ptr %4) #11
  %5 = load ptr, ptr %2, align 8
  %6 = getelementptr inbounds nuw %struct.HTAB, ptr %5, i32 0, i32 0
  %7 = load ptr, ptr %6, align 8
  %8 = getelementptr inbounds nuw %struct.HASHHDR, ptr %7, i32 0, i32 0
  %9 = getelementptr inbounds [32 x %struct.FreeListData], ptr %8, i64 0, i64 0
  %10 = getelementptr inbounds nuw %struct.FreeListData, ptr %9, i32 0, i32 1
  %11 = load i64, ptr %10, align 8
  store i64 %11, ptr %4, align 8
  %12 = load ptr, ptr %2, align 8
  %13 = getelementptr inbounds nuw %struct.HTAB, ptr %12, i32 0, i32 0
  %14 = load ptr, ptr %13, align 8
  %15 = getelementptr inbounds nuw %struct.HASHHDR, ptr %14, i32 0, i32 8
  %16 = load i64, ptr %15, align 8
  %17 = icmp ne i64 %16, 0
  br i1 %17, label %18, label %38

18:                                               ; preds = %1
  store i32 1, ptr %3, align 4
  br label %19

19:                                               ; preds = %34, %18
  %20 = load i32, ptr %3, align 4
  %21 = icmp slt i32 %20, 32
  br i1 %21, label %22, label %37

22:                                               ; preds = %19
  %23 = load ptr, ptr %2, align 8
  %24 = getelementptr inbounds nuw %struct.HTAB, ptr %23, i32 0, i32 0
  %25 = load ptr, ptr %24, align 8
  %26 = getelementptr inbounds nuw %struct.HASHHDR, ptr %25, i32 0, i32 0
  %27 = load i32, ptr %3, align 4
  %28 = sext i32 %27 to i64
  %29 = getelementptr inbounds [32 x %struct.FreeListData], ptr %26, i64 0, i64 %28
  %30 = getelementptr inbounds nuw %struct.FreeListData, ptr %29, i32 0, i32 1
  %31 = load i64, ptr %30, align 8
  %32 = load i64, ptr %4, align 8
  %33 = add i64 %32, %31
  store i64 %33, ptr %4, align 8
  br label %34

34:                                               ; preds = %22
  %35 = load i32, ptr %3, align 4
  %36 = add i32 %35, 1
  store i32 %36, ptr %3, align 4
  br label %19, !llvm.loop !31

37:                                               ; preds = %19
  br label %38

38:                                               ; preds = %37, %1
  %39 = load i64, ptr %4, align 8
  call void @llvm.lifetime.end.p0(i64 8, ptr %4) #11
  call void @llvm.lifetime.end.p0(i64 4, ptr %3) #11
  ret i64 %39
}