; Function Attrs: nofree norecurse nosync nounwind memory(read, inaccessiblemem: none) uwtable
define dso_local i64 @hash_get_num_entries(ptr noundef readonly captures(none) %0) local_unnamed_addr #11 {
  %2 = load ptr, ptr %0, align 8
  %3 = getelementptr inbounds nuw i8, ptr %2, i64 8
  %4 = load i64, ptr %3, align 8
  %5 = getelementptr inbounds nuw i8, ptr %2, i64 816
  %6 = load i64, ptr %5, align 8
  %.not = icmp eq i64 %6, 0
  br i1 %.not, label %.loopexit, label %.preheader

.preheader:                                       ; preds = %1, %.preheader
  %indvars.iv = phi i64 [ %indvars.iv.next, %.preheader ], [ 1, %1 ]
  %.19 = phi i64 [ %9, %.preheader ], [ %4, %1 ]
  %7 = getelementptr inbounds nuw [32 x %struct.FreeListData], ptr %2, i64 0, i64 %indvars.iv, i32 1
  %8 = load i64, ptr %7, align 8
  %9 = add i64 %8, %.19
  %indvars.iv.next = add nuw nsw i64 %indvars.iv, 1
  %exitcond.not = icmp eq i64 %indvars.iv.next, 32
  br i1 %exitcond.not, label %.loopexit, label %.preheader, !llvm.loop !29

.loopexit:                                        ; preds = %.preheader, %1
  %.0 = phi i64 [ %4, %1 ], [ %9, %.preheader ]
  ret i64 %.0
}